; Function Attrs: mustprogress uwtable
define void @_ZN13FilterFractal17initParameterListEPK7QActionRK12MeshDocument(ptr dead_on_unwind noalias nonnull writable sret(%class.RichParameterList) align 8 %0, ptr noundef nonnull align 8 dereferenceable(80) %1, ptr noundef %2, ptr noundef nonnull align 8 dereferenceable(192) %3) unnamed_addr #9 align 2 personality ptr @__gxx_personality_v0 {
  tail call void @_ZN17RichParameterListC1Ev(ptr noundef nonnull align 8 dereferenceable(24) %0)
  %5 = getelementptr inbounds i8, ptr %1, i64 16
  %6 = load ptr, ptr %5, align 8
  %7 = getelementptr inbounds i8, ptr %6, i64 144
  %8 = load ptr, ptr %7, align 8
  %9 = invoke noundef i32 %8(ptr noundef nonnull align 8 dereferenceable(64) %5, ptr noundef %2)
          to label %10 unwind label %11

10:                                               ; preds = %4
  switch i32 %9, label %15 [
    i32 0, label %13
    i32 1, label %13
    i32 2, label %14
  ]

11:                                               ; preds = %14, %13, %4
  %12 = landingpad { ptr, i32 }
          cleanup
  tail call void @_ZN17RichParameterListD1Ev(ptr noundef nonnull align 8 dereferenceable(24) %0) #25
  resume { ptr, i32 } %12

13:                                               ; preds = %10, %10
  invoke void @_ZN13FilterFractal38initParameterSetForFractalDisplacementEPK7QActionRK12MeshDocumentR17RichParameterList(ptr noundef nonnull align 8 dereferenceable(80) %1, ptr noundef %2, ptr noundef nonnull align 8 dereferenceable(192) %3, ptr noundef nonnull align 8 dereferenceable(24) %0)
          to label %15 unwind label %11

14:                                               ; preds = %10
  invoke void @_ZN13FilterFractal36initParameterSetForCratersGenerationERK12MeshDocumentR17RichParameterList(ptr nonnull align 8 poison, ptr noundef nonnull align 8 dereferenceable(192) %3, ptr noundef nonnull align 8 dereferenceable(24) %0)
          to label %15 unwind label %11

15:                                               ; preds = %10, %13, %14
  ret void
}